target datalayout = "e-m:e-p270:32:32-p271:32:32-p272:64:64-i64:64-i128:128-f80:128-n8:16:32:64-S128"
target triple = "x86_64-pc-linux-gnu"

%struct.AVFilterContext = type { ptr, ptr, ptr, ptr, ptr, i32, ptr, ptr, i32, ptr, ptr, i32, i32, ptr, ptr, ptr, ptr, i32, ptr, i32, i32 }
%struct.YAEPContext = type { ptr, i32, i32, i32, i32, [4 x i32], [4 x i32], i32, ptr, ptr, i32, ptr, ptr }
%struct.ThreadData = type { i32, i32, i32, i32, ptr, ptr }
%struct.AVFilterLink = type { ptr, ptr, ptr, ptr, i32, i32, i32, i32, %struct.AVRational, i32, i32, i32, %struct.AVChannelLayout, %struct.AVRational, ptr, i32, %struct.AVFilterFormatsConfig, %struct.AVFilterFormatsConfig }
%struct.AVChannelLayout = type { i32, i32, %union.anon.1, ptr }
%union.anon.1 = type { i64 }
%struct.AVRational = type { i32, i32 }
%struct.AVFilterFormatsConfig = type { ptr, ptr, ptr, ptr, ptr }
%struct.AVFrame = type { [8 x ptr], [8 x i32], ptr, i32, i32, i32, i32, i32, %struct.AVRational, i64, i64, %struct.AVRational, i32, ptr, i32, i32, [8 x ptr], ptr, i32, ptr, i32, i32, i32, i32, i32, i32, i32, i64, ptr, i32, ptr, ptr, i64, i64, i64, i64, ptr, %struct.AVChannelLayout, i64 }

; Function Attrs: nounwind uwtable
define internal i32 @filter_frame(ptr noundef %0, ptr noundef %1) #2 {
  %3 = alloca i32, align 4
  %4 = alloca ptr, align 8
  %5 = alloca ptr, align 8
  %6 = alloca ptr, align 8
  %7 = alloca ptr, align 8
  %8 = alloca ptr, align 8
  %9 = alloca ptr, align 8
  %10 = alloca i32, align 4
  %11 = alloca i32, align 4
  %12 = alloca %struct.ThreadData, align 8
  %13 = alloca i32, align 4
  store ptr %0, ptr %4, align 8, !tbaa !24
  store ptr %1, ptr %5, align 8, !tbaa !26
  call void @llvm.lifetime.start.p0(i64 8, ptr %6) #6
  %14 = load ptr, ptr %4, align 8, !tbaa !24
  %15 = getelementptr inbounds nuw %struct.AVFilterLink, ptr %14, i32 0, i32 2
  %16 = load ptr, ptr %15, align 8, !tbaa !28
  store ptr %16, ptr %6, align 8, !tbaa !4
  call void @llvm.lifetime.start.p0(i64 8, ptr %7) #6
  %17 = load ptr, ptr %6, align 8, !tbaa !4
  %18 = getelementptr inbounds nuw %struct.AVFilterContext, ptr %17, i32 0, i32 9
  %19 = load ptr, ptr %18, align 8, !tbaa !9
  store ptr %19, ptr %7, align 8, !tbaa !22
  call void @llvm.lifetime.start.p0(i64 8, ptr %8) #6
  %20 = load ptr, ptr %6, align 8, !tbaa !4
  %21 = getelementptr inbounds nuw %struct.AVFilterContext, ptr %20, i32 0, i32 7
  %22 = load ptr, ptr %21, align 8, !tbaa !36
  %23 = getelementptr inbounds ptr, ptr %22, i64 0
  %24 = load ptr, ptr %23, align 8, !tbaa !24
  store ptr %24, ptr %8, align 8, !tbaa !24
  call void @llvm.lifetime.start.p0(i64 8, ptr %9) #6
  call void @llvm.lifetime.start.p0(i64 4, ptr %10) #6
  call void @llvm.lifetime.start.p0(i64 4, ptr %11) #6
  %25 = load ptr, ptr %6, align 8, !tbaa !4
  %26 = call i32 @ff_filter_get_nb_threads(ptr noundef %25) #7
  store i32 %26, ptr %11, align 4, !tbaa !37
  call void @llvm.lifetime.start.p0(i64 32, ptr %12) #6
  %27 = load ptr, ptr %5, align 8, !tbaa !26
  %28 = call i32 @av_frame_is_writable(ptr noundef %27)
  %29 = icmp ne i32 %28, 0
  br i1 %29, label %30, label %32

30:                                               ; preds = %2
  %31 = load ptr, ptr %5, align 8, !tbaa !26
  store ptr %31, ptr %9, align 8, !tbaa !26
  br label %48

32:                                               ; preds = %2
  %33 = load ptr, ptr %8, align 8, !tbaa !24
  %34 = load ptr, ptr %8, align 8, !tbaa !24
  %35 = getelementptr inbounds nuw %struct.AVFilterLink, ptr %34, i32 0, i32 6
  %36 = load i32, ptr %35, align 8, !tbaa !38
  %37 = load ptr, ptr %8, align 8, !tbaa !24
  %38 = getelementptr inbounds nuw %struct.AVFilterLink, ptr %37, i32 0, i32 7
  %39 = load i32, ptr %38, align 4, !tbaa !39
  %40 = call ptr @ff_get_video_buffer(ptr noundef %33, i32 noundef %36, i32 noundef %39)
  store ptr %40, ptr %9, align 8, !tbaa !26
  %41 = load ptr, ptr %9, align 8, !tbaa !26
  %42 = icmp ne ptr %41, null
  br i1 %42, label %44, label %43

43:                                               ; preds = %32
  call void @av_frame_free(ptr noundef %5)
  store i32 -12, ptr %3, align 4
  store i32 1, ptr %13, align 4
  br label %216

44:                                               ; preds = %32
  %45 = load ptr, ptr %9, align 8, !tbaa !26
  %46 = load ptr, ptr %5, align 8, !tbaa !26
  %47 = call i32 @av_frame_copy_props(ptr noundef %45, ptr noundef %46)
  br label %48

48:                                               ; preds = %44, %30
  store i32 0, ptr %10, align 4, !tbaa !37
  br label %49

49:                                               ; preds = %204, %48
  %50 = load i32, ptr %10, align 4, !tbaa !37
  %51 = load ptr, ptr %7, align 8, !tbaa !22
  %52 = getelementptr inbounds nuw %struct.YAEPContext, ptr %51, i32 0, i32 4
  %53 = load i32, ptr %52, align 4, !tbaa !40
  %54 = icmp slt i32 %50, %53
  br i1 %54, label %55, label %207

55:                                               ; preds = %49
  %56 = load ptr, ptr %7, align 8, !tbaa !22
  %57 = getelementptr inbounds nuw %struct.YAEPContext, ptr %56, i32 0, i32 2
  %58 = load i32, ptr %57, align 4, !tbaa !43
  %59 = icmp ne i32 %58, 0
  br i1 %59, label %60, label %68

60:                                               ; preds = %55
  %61 = load ptr, ptr %7, align 8, !tbaa !22
  %62 = getelementptr inbounds nuw %struct.YAEPContext, ptr %61, i32 0, i32 1
  %63 = load i32, ptr %62, align 8, !tbaa !44
  %64 = load i32, ptr %10, align 4, !tbaa !37
  %65 = shl i32 1, %64
  %66 = and i32 %63, %65
  %67 = icmp ne i32 %66, 0
  br i1 %67, label %116, label %68

68:                                               ; preds = %60, %55
  %69 = load ptr, ptr %9, align 8, !tbaa !26
  %70 = load ptr, ptr %5, align 8, !tbaa !26
  %71 = icmp ne ptr %69, %70
  br i1 %71, label %72, label %115

72:                                               ; preds = %68
  %73 = load ptr, ptr %9, align 8, !tbaa !26
  %74 = getelementptr inbounds nuw %struct.AVFrame, ptr %73, i32 0, i32 0
  %75 = load i32, ptr %10, align 4, !tbaa !37
  %76 = sext i32 %75 to i64
  %77 = getelementptr inbounds [8 x ptr], ptr %74, i64 0, i64 %76
  %78 = load ptr, ptr %77, align 8, !tbaa !45
  %79 = load ptr, ptr %9, align 8, !tbaa !26
  %80 = getelementptr inbounds nuw %struct.AVFrame, ptr %79, i32 0, i32 1
  %81 = load i32, ptr %10, align 4, !tbaa !37
  %82 = sext i32 %81 to i64
  %83 = getelementptr inbounds [8 x i32], ptr %80, i64 0, i64 %82
  %84 = load i32, ptr %83, align 4, !tbaa !37
  %85 = load ptr, ptr %5, align 8, !tbaa !26
  %86 = getelementptr inbounds nuw %struct.AVFrame, ptr %85, i32 0, i32 0
  %87 = load i32, ptr %10, align 4, !tbaa !37
  %88 = sext i32 %87 to i64
  %89 = getelementptr inbounds [8 x ptr], ptr %86, i64 0, i64 %88
  %90 = load ptr, ptr %89, align 8, !tbaa !45
  %91 = load ptr, ptr %5, align 8, !tbaa !26
  %92 = getelementptr inbounds nuw %struct.AVFrame, ptr %91, i32 0, i32 1
  %93 = load i32, ptr %10, align 4, !tbaa !37
  %94 = sext i32 %93 to i64
  %95 = getelementptr inbounds [8 x i32], ptr %92, i64 0, i64 %94
  %96 = load i32, ptr %95, align 4, !tbaa !37
  %97 = load ptr, ptr %7, align 8, !tbaa !22
  %98 = getelementptr inbounds nuw %struct.YAEPContext, ptr %97, i32 0, i32 5
  %99 = load i32, ptr %10, align 4, !tbaa !37
  %100 = sext i32 %99 to i64
  %101 = getelementptr inbounds [4 x i32], ptr %98, i64 0, i64 %100
  %102 = load i32, ptr %101, align 4, !tbaa !37
  %103 = load ptr, ptr %7, align 8, !tbaa !22
  %104 = getelementptr inbounds nuw %struct.YAEPContext, ptr %103, i32 0, i32 7
  %105 = load i32, ptr %104, align 8, !tbaa !46
  %106 = add nsw i32 %105, 7
  %107 = sdiv i32 %106, 8
  %108 = mul nsw i32 %102, %107
  %109 = load ptr, ptr %7, align 8, !tbaa !22
  %110 = getelementptr inbounds nuw %struct.YAEPContext, ptr %109, i32 0, i32 6
  %111 = load i32, ptr %10, align 4, !tbaa !37
  %112 = sext i32 %111 to i64
  %113 = getelementptr inbounds [4 x i32], ptr %110, i64 0, i64 %112
  %114 = load i32, ptr %113, align 4, !tbaa !37
  call void @av_image_copy_plane(ptr noundef %78, i32 noundef %84, ptr noundef %90, i32 noundef %96, i32 noundef %108, i32 noundef %114)
  br label %115

115:                                              ; preds = %72, %68
  br label %204

116:                                              ; preds = %60
  %117 = load ptr, ptr %7, align 8, !tbaa !22
  %118 = getelementptr inbounds nuw %struct.YAEPContext, ptr %117, i32 0, i32 5
  %119 = load i32, ptr %10, align 4, !tbaa !37
  %120 = sext i32 %119 to i64
  %121 = getelementptr inbounds [4 x i32], ptr %118, i64 0, i64 %120
  %122 = load i32, ptr %121, align 4, !tbaa !37
  %123 = getelementptr inbounds nuw %struct.ThreadData, ptr %12, i32 0, i32 0
  store i32 %122, ptr %123, align 8, !tbaa !47
  %124 = load ptr, ptr %7, align 8, !tbaa !22
  %125 = getelementptr inbounds nuw %struct.YAEPContext, ptr %124, i32 0, i32 6
  %126 = load i32, ptr %10, align 4, !tbaa !37
  %127 = sext i32 %126 to i64
  %128 = getelementptr inbounds [4 x i32], ptr %125, i64 0, i64 %127
  %129 = load i32, ptr %128, align 4, !tbaa !37
  %130 = getelementptr inbounds nuw %struct.ThreadData, ptr %12, i32 0, i32 1
  store i32 %129, ptr %130, align 4, !tbaa !49
  %131 = load ptr, ptr %5, align 8, !tbaa !26
  %132 = getelementptr inbounds nuw %struct.AVFrame, ptr %131, i32 0, i32 0
  %133 = load i32, ptr %10, align 4, !tbaa !37
  %134 = sext i32 %133 to i64
  %135 = getelementptr inbounds [8 x ptr], ptr %132, i64 0, i64 %134
  %136 = load ptr, ptr %135, align 8, !tbaa !45
  %137 = getelementptr inbounds nuw %struct.ThreadData, ptr %12, i32 0, i32 4
  store ptr %136, ptr %137, align 8, !tbaa !50
  %138 = load ptr, ptr %5, align 8, !tbaa !26
  %139 = getelementptr inbounds nuw %struct.AVFrame, ptr %138, i32 0, i32 1
  %140 = load i32, ptr %10, align 4, !tbaa !37
  %141 = sext i32 %140 to i64
  %142 = getelementptr inbounds [8 x i32], ptr %139, i64 0, i64 %141
  %143 = load i32, ptr %142, align 4, !tbaa !37
  %144 = getelementptr inbounds nuw %struct.ThreadData, ptr %12, i32 0, i32 2
  store i32 %143, ptr %144, align 8, !tbaa !51
  %145 = load ptr, ptr %6, align 8, !tbaa !4
  %146 = load ptr, ptr %7, align 8, !tbaa !22
  %147 = getelementptr inbounds nuw %struct.YAEPContext, ptr %146, i32 0, i32 11
  %148 = load ptr, ptr %147, align 8, !tbaa !52
  %149 = getelementptr inbounds nuw %struct.ThreadData, ptr %12, i32 0, i32 1
  %150 = load i32, ptr %149, align 4, !tbaa !49
  %151 = load i32, ptr %11, align 4, !tbaa !37
  %152 = icmp sgt i32 %150, %151
  br i1 %152, label %153, label %155

153:                                              ; preds = %116
  %154 = load i32, ptr %11, align 4, !tbaa !37
  br label %158

155:                                              ; preds = %116
  %156 = getelementptr inbounds nuw %struct.ThreadData, ptr %12, i32 0, i32 1
  %157 = load i32, ptr %156, align 4, !tbaa !49
  br label %158

158:                                              ; preds = %155, %153
  %159 = phi i32 [ %154, %153 ], [ %157, %155 ]
  %160 = call i32 @ff_filter_execute(ptr noundef %145, ptr noundef %148, ptr noundef %12, ptr noundef null, i32 noundef %159)
  %161 = load ptr, ptr %6, align 8, !tbaa !4
  %162 = getelementptr inbounds nuw %struct.ThreadData, ptr %12, i32 0, i32 0
  %163 = load i32, ptr %162, align 8, !tbaa !47
  %164 = load i32, ptr %11, align 4, !tbaa !37
  %165 = icmp sgt i32 %163, %164
  br i1 %165, label %166, label %168

166:                                              ; preds = %158
  %167 = load i32, ptr %11, align 4, !tbaa !37
  br label %171

168:                                              ; preds = %158
  %169 = getelementptr inbounds nuw %struct.ThreadData, ptr %12, i32 0, i32 0
  %170 = load i32, ptr %169, align 8, !tbaa !47
  br label %171

171:                                              ; preds = %168, %166
  %172 = phi i32 [ %167, %166 ], [ %170, %168 ]
  %173 = call i32 @ff_filter_execute(ptr noundef %161, ptr noundef @pre_calculate_col, ptr noundef %12, ptr noundef null, i32 noundef %172)
  %174 = load ptr, ptr %9, align 8, !tbaa !26
  %175 = getelementptr inbounds nuw %struct.AVFrame, ptr %174, i32 0, i32 0
  %176 = load i32, ptr %10, align 4, !tbaa !37
  %177 = sext i32 %176 to i64
  %178 = getelementptr inbounds [8 x ptr], ptr %175, i64 0, i64 %177
  %179 = load ptr, ptr %178, align 8, !tbaa !45
  %180 = getelementptr inbounds nuw %struct.ThreadData, ptr %12, i32 0, i32 5
  store ptr %179, ptr %180, align 8, !tbaa !53
  %181 = load ptr, ptr %9, align 8, !tbaa !26
  %182 = getelementptr inbounds nuw %struct.AVFrame, ptr %181, i32 0, i32 1
  %183 = load i32, ptr %10, align 4, !tbaa !37
  %184 = sext i32 %183 to i64
  %185 = getelementptr inbounds [8 x i32], ptr %182, i64 0, i64 %184
  %186 = load i32, ptr %185, align 4, !tbaa !37
  %187 = getelementptr inbounds nuw %struct.ThreadData, ptr %12, i32 0, i32 3
  store i32 %186, ptr %187, align 4, !tbaa !54
  %188 = load ptr, ptr %6, align 8, !tbaa !4
  %189 = load ptr, ptr %7, align 8, !tbaa !22
  %190 = getelementptr inbounds nuw %struct.YAEPContext, ptr %189, i32 0, i32 12
  %191 = load ptr, ptr %190, align 8, !tbaa !55
  %192 = getelementptr inbounds nuw %struct.ThreadData, ptr %12, i32 0, i32 1
  %193 = load i32, ptr %192, align 4, !tbaa !49
  %194 = load i32, ptr %11, align 4, !tbaa !37
  %195 = icmp sgt i32 %193, %194
  br i1 %195, label %196, label %198

196:                                              ; preds = %171
  %197 = load i32, ptr %11, align 4, !tbaa !37
  br label %201

198:                                              ; preds = %171
  %199 = getelementptr inbounds nuw %struct.ThreadData, ptr %12, i32 0, i32 1
  %200 = load i32, ptr %199, align 4, !tbaa !49
  br label %201

201:                                              ; preds = %198, %196
  %202 = phi i32 [ %197, %196 ], [ %200, %198 ]
  %203 = call i32 @ff_filter_execute(ptr noundef %188, ptr noundef %191, ptr noundef %12, ptr noundef null, i32 noundef %202)
  br label %204

204:                                              ; preds = %201, %115
  %205 = load i32, ptr %10, align 4, !tbaa !37
  %206 = add nsw i32 %205, 1
  store i32 %206, ptr %10, align 4, !tbaa !37
  br label %49, !llvm.loop !56

207:                                              ; preds = %49
  %208 = load ptr, ptr %9, align 8, !tbaa !26
  %209 = load ptr, ptr %5, align 8, !tbaa !26
  %210 = icmp ne ptr %208, %209
  br i1 %210, label %211, label %212

211:                                              ; preds = %207
  call void @av_frame_free(ptr noundef %5)
  br label %212

212:                                              ; preds = %211, %207
  %213 = load ptr, ptr %8, align 8, !tbaa !24
  %214 = load ptr, ptr %9, align 8, !tbaa !26
  %215 = call i32 @ff_filter_frame(ptr noundef %213, ptr noundef %214)
  store i32 %215, ptr %3, align 4
  store i32 1, ptr %13, align 4
  br label %216

216:                                              ; preds = %212, %43
  call void @llvm.lifetime.end.p0(i64 32, ptr %12) #6
  call void @llvm.lifetime.end.p0(i64 4, ptr %11) #6
  call void @llvm.lifetime.end.p0(i64 4, ptr %10) #6
  call void @llvm.lifetime.end.p0(i64 8, ptr %9) #6
  call void @llvm.lifetime.end.p0(i64 8, ptr %8) #6
  call void @llvm.lifetime.end.p0(i64 8, ptr %7) #6
  call void @llvm.lifetime.end.p0(i64 8, ptr %6) #6
  %217 = load i32, ptr %3, align 4
  ret i32 %217
}