; Function Attrs: nounwind uwtable
define internal i32 @filter_frame(ptr noundef readonly captures(none) %0, ptr noundef %1) #2 {
  %3 = alloca ptr, align 8
  %4 = alloca %struct.ThreadData, align 8
  store ptr %1, ptr %3, align 8, !tbaa !20
  %5 = getelementptr inbounds nuw i8, ptr %0, i64 16
  %6 = load ptr, ptr %5, align 8, !tbaa !22
  %7 = getelementptr inbounds nuw i8, ptr %6, i64 72
  %8 = load ptr, ptr %7, align 8, !tbaa !4
  %9 = getelementptr inbounds nuw i8, ptr %6, i64 56
  %10 = load ptr, ptr %9, align 8, !tbaa !31
  %11 = load ptr, ptr %10, align 8, !tbaa !32
  %12 = tail call i32 @ff_filter_get_nb_threads(ptr noundef %6) #8
  call void @llvm.lifetime.start.p0(i64 32, ptr nonnull %4) #7
  %13 = tail call i32 @av_frame_is_writable(ptr noundef %1) #7
  %.not = icmp eq i32 %13, 0
  br i1 %.not, label %14, label %23

14:                                               ; preds = %2
  %15 = getelementptr inbounds nuw i8, ptr %11, i64 40
  %16 = load i32, ptr %15, align 8, !tbaa !34
  %17 = getelementptr inbounds nuw i8, ptr %11, i64 44
  %18 = load i32, ptr %17, align 4, !tbaa !35
  %19 = tail call ptr @ff_get_video_buffer(ptr noundef %11, i32 noundef %16, i32 noundef %18) #7
  %.not55 = icmp eq ptr %19, null
  br i1 %.not55, label %20, label %21

20:                                               ; preds = %14
  call void @av_frame_free(ptr noundef nonnull %3) #7
  br label %99

21:                                               ; preds = %14
  %22 = tail call i32 @av_frame_copy_props(ptr noundef nonnull %19, ptr noundef %1) #7
  br label %23

23:                                               ; preds = %2, %21
  %.052 = phi ptr [ %19, %21 ], [ %1, %2 ]
  %24 = getelementptr inbounds nuw i8, ptr %8, i64 20
  %25 = load i32, ptr %24, align 4, !tbaa !36
  %26 = icmp sgt i32 %25, 0
  br i1 %26, label %.lr.ph, label %._crit_edge

.lr.ph:                                           ; preds = %23
  %27 = getelementptr inbounds nuw i8, ptr %8, i64 12
  %28 = getelementptr inbounds nuw i8, ptr %8, i64 8
  %29 = getelementptr inbounds nuw i8, ptr %8, i64 24
  %30 = getelementptr inbounds nuw i8, ptr %8, i64 40
  %31 = getelementptr inbounds nuw i8, ptr %4, i64 4
  %32 = getelementptr inbounds nuw i8, ptr %4, i64 16
  %33 = getelementptr inbounds nuw i8, ptr %4, i64 8
  %34 = getelementptr inbounds nuw i8, ptr %8, i64 88
  %35 = getelementptr inbounds nuw i8, ptr %4, i64 24
  %36 = getelementptr inbounds nuw i8, ptr %.052, i64 64
  %37 = getelementptr inbounds nuw i8, ptr %4, i64 12
  %38 = getelementptr inbounds nuw i8, ptr %8, i64 96
  %39 = getelementptr inbounds nuw i8, ptr %8, i64 56
  br label %40

40:                                               ; preds = %.lr.ph, %91
  %indvars.iv = phi i64 [ 0, %.lr.ph ], [ %indvars.iv.next, %91 ]
  %41 = load i32, ptr %27, align 4, !tbaa !39
  %.not57 = icmp eq i32 %41, 0
  br i1 %.not57, label %._crit_edge62, label %42

._crit_edge62:                                    ; preds = %40
  %.pre = load ptr, ptr %3, align 8, !tbaa !20
  br label %47

42:                                               ; preds = %40
  %43 = load i32, ptr %28, align 8, !tbaa !40
  %44 = trunc nuw nsw i64 %indvars.iv to i32
  %45 = shl nuw i32 1, %44
  %46 = and i32 %43, %45
  %.not58 = icmp eq i32 %46, 0
  %.pre63 = load ptr, ptr %3, align 8, !tbaa !20
  br i1 %.not58, label %47, label %67

47:                                               ; preds = %._crit_edge62, %42
  %48 = phi ptr [ %.pre, %._crit_edge62 ], [ %.pre63, %42 ]
  %.not59 = icmp eq ptr %.052, %48
  br i1 %.not59, label %91, label %49

49:                                               ; preds = %47
  %50 = getelementptr inbounds nuw [8 x ptr], ptr %.052, i64 0, i64 %indvars.iv
  %51 = load ptr, ptr %50, align 8, !tbaa !41
  %52 = getelementptr inbounds nuw [8 x i32], ptr %36, i64 0, i64 %indvars.iv
  %53 = load i32, ptr %52, align 4, !tbaa !42
  %54 = getelementptr inbounds nuw [8 x ptr], ptr %48, i64 0, i64 %indvars.iv
  %55 = load ptr, ptr %54, align 8, !tbaa !41
  %56 = getelementptr inbounds nuw i8, ptr %48, i64 64
  %57 = getelementptr inbounds nuw [8 x i32], ptr %56, i64 0, i64 %indvars.iv
  %58 = load i32, ptr %57, align 4, !tbaa !42
  %59 = getelementptr inbounds nuw [4 x i32], ptr %29, i64 0, i64 %indvars.iv
  %60 = load i32, ptr %59, align 4, !tbaa !42
  %61 = load i32, ptr %39, align 8, !tbaa !43
  %62 = add nsw i32 %61, 7
  %63 = sdiv i32 %62, 8
  %64 = mul nsw i32 %63, %60
  %65 = getelementptr inbounds nuw [4 x i32], ptr %30, i64 0, i64 %indvars.iv
  %66 = load i32, ptr %65, align 4, !tbaa !42
  call void @av_image_copy_plane(ptr noundef %51, i32 noundef %53, ptr noundef %55, i32 noundef %58, i32 noundef %64, i32 noundef %66) #7
  br label %91

67:                                               ; preds = %42
  %68 = getelementptr inbounds nuw [4 x i32], ptr %29, i64 0, i64 %indvars.iv
  %69 = load i32, ptr %68, align 4, !tbaa !42
  store i32 %69, ptr %4, align 8, !tbaa !44
  %70 = getelementptr inbounds nuw [4 x i32], ptr %30, i64 0, i64 %indvars.iv
  %71 = load i32, ptr %70, align 4, !tbaa !42
  store i32 %71, ptr %31, align 4, !tbaa !46
  %72 = getelementptr inbounds nuw [8 x ptr], ptr %.pre63, i64 0, i64 %indvars.iv
  %73 = load ptr, ptr %72, align 8, !tbaa !41
  store ptr %73, ptr %32, align 8, !tbaa !47
  %74 = getelementptr inbounds nuw i8, ptr %.pre63, i64 64
  %75 = getelementptr inbounds nuw [8 x i32], ptr %74, i64 0, i64 %indvars.iv
  %76 = load i32, ptr %75, align 4, !tbaa !42
  store i32 %76, ptr %33, align 8, !tbaa !48
  %77 = load ptr, ptr %34, align 8, !tbaa !49
  %78 = call i32 @llvm.smin.i32(i32 %71, i32 %12)
  %79 = call i32 @ff_filter_execute(ptr noundef %6, ptr noundef %77, ptr noundef nonnull %4, ptr noundef null, i32 noundef %78) #7
  %80 = load i32, ptr %4, align 8, !tbaa !44
  %81 = call i32 @llvm.smin.i32(i32 %80, i32 %12)
  %82 = call i32 @ff_filter_execute(ptr noundef %6, ptr noundef nonnull @pre_calculate_col, ptr noundef nonnull %4, ptr noundef null, i32 noundef %81) #7
  %83 = getelementptr inbounds nuw [8 x ptr], ptr %.052, i64 0, i64 %indvars.iv
  %84 = load ptr, ptr %83, align 8, !tbaa !41
  store ptr %84, ptr %35, align 8, !tbaa !50
  %85 = getelementptr inbounds nuw [8 x i32], ptr %36, i64 0, i64 %indvars.iv
  %86 = load i32, ptr %85, align 4, !tbaa !42
  store i32 %86, ptr %37, align 4, !tbaa !51
  %87 = load ptr, ptr %38, align 8, !tbaa !52
  %88 = load i32, ptr %31, align 4, !tbaa !46
  %89 = call i32 @llvm.smin.i32(i32 %88, i32 %12)
  %90 = call i32 @ff_filter_execute(ptr noundef %6, ptr noundef %87, ptr noundef nonnull %4, ptr noundef null, i32 noundef %89) #7
  br label %91

91:                                               ; preds = %47, %49, %67
  %indvars.iv.next = add nuw nsw i64 %indvars.iv, 1
  %92 = load i32, ptr %24, align 4, !tbaa !36
  %93 = sext i32 %92 to i64
  %94 = icmp slt i64 %indvars.iv.next, %93
  br i1 %94, label %40, label %._crit_edge.loopexit, !llvm.loop !53

._crit_edge.loopexit:                             ; preds = %91
  %.pre64 = load ptr, ptr %3, align 8, !tbaa !20
  br label %._crit_edge

._crit_edge:                                      ; preds = %._crit_edge.loopexit, %23
  %95 = phi ptr [ %.pre64, %._crit_edge.loopexit ], [ %1, %23 ]
  %.not56 = icmp eq ptr %.052, %95
  br i1 %.not56, label %97, label %96

96:                                               ; preds = %._crit_edge
  call void @av_frame_free(ptr noundef nonnull %3) #7
  br label %97

97:                                               ; preds = %96, %._crit_edge
  %98 = call i32 @ff_filter_frame(ptr noundef %11, ptr noundef %.052) #7
  br label %99

99:                                               ; preds = %97, %20
  %.0 = phi i32 [ %98, %97 ], [ -12, %20 ]
  call void @llvm.lifetime.end.p0(i64 32, ptr nonnull %4) #7
  ret i32 %.0
}